target datalayout = "e-m:e-p270:32:32-p271:32:32-p272:64:64-i64:64-i128:128-f80:128-n8:16:32:64-S128"
target triple = "x86_64-pc-linux-gnu"

; Function Attrs: inlinehint nounwind uwtable
define internal i32 @If_CluWordNum(i32 noundef %0) #3 {
  %2 = alloca i32, align 4
  store i32 %0, ptr %2, align 4, !tbaa !3
  %3 = load i32, ptr %2, align 4, !tbaa !3
  %4 = icmp sle i32 %3, 6
  br i1 %4, label %5, label %6

5:                                                ; preds = %1
  br label %10

6:                                                ; preds = %1
  %7 = load i32, ptr %2, align 4, !tbaa !3
  %8 = sub nsw i32 %7, 6
  %9 = shl i32 1, %8
  br label %10

10:                                               ; preds = %6, %5
  %11 = phi i32 [ 1, %5 ], [ %9, %6 ]
  ret i32 %11
}

; Function Attrs: inlinehint nounwind uwtable
define internal void @If_CluCopy(ptr noundef %0, ptr noundef %1, i32 noundef %2) #3 {
  %4 = alloca ptr, align 8
  %5 = alloca ptr, align 8
  %6 = alloca i32, align 4
  %7 = alloca i32, align 4
  %8 = alloca i32, align 4
  store ptr %0, ptr %4, align 8, !tbaa !51
  store ptr %1, ptr %5, align 8, !tbaa !51
  store i32 %2, ptr %6, align 4, !tbaa !3
  call void @llvm.lifetime.start.p0(i64 4, ptr %7) #11
  call void @llvm.lifetime.start.p0(i64 4, ptr %8) #11
  %9 = load i32, ptr %6, align 4, !tbaa !3
  %10 = call i32 @If_CluWordNum(i32 noundef %9)
  store i32 %10, ptr %8, align 4, !tbaa !3
  store i32 0, ptr %7, align 4, !tbaa !3
  br label %11

11:                                               ; preds = %25, %3
  %12 = load i32, ptr %7, align 4, !tbaa !3
  %13 = load i32, ptr %8, align 4, !tbaa !3
  %14 = icmp slt i32 %12, %13
  br i1 %14, label %15, label %28

15:                                               ; preds = %11
  %16 = load ptr, ptr %5, align 8, !tbaa !51
  %17 = load i32, ptr %7, align 4, !tbaa !3
  %18 = sext i32 %17 to i64
  %19 = getelementptr inbounds i64, ptr %16, i64 %18
  %20 = load i64, ptr %19, align 8, !tbaa !79
  %21 = load ptr, ptr %4, align 8, !tbaa !51
  %22 = load i32, ptr %7, align 4, !tbaa !3
  %23 = sext i32 %22 to i64
  %24 = getelementptr inbounds i64, ptr %21, i64 %23
  store i64 %20, ptr %24, align 8, !tbaa !79
  br label %25

25:                                               ; preds = %15
  %26 = load i32, ptr %7, align 4, !tbaa !3
  %27 = add nsw i32 %26, 1
  store i32 %27, ptr %7, align 4, !tbaa !3
  br label %11, !llvm.loop !101

28:                                               ; preds = %11
  call void @llvm.lifetime.end.p0(i64 4, ptr %8) #11
  call void @llvm.lifetime.end.p0(i64 4, ptr %7) #11
  ret void
}

; Function Attrs: nounwind uwtable
define void @If_CluMoveVar(ptr noundef %0, i32 noundef %1, ptr noundef %2, ptr noundef %3, i32 noundef %4, i32 noundef %5) #0 {
  %7 = alloca ptr, align 8
  %8 = alloca i32, align 4
  %9 = alloca ptr, align 8
  %10 = alloca ptr, align 8
  %11 = alloca i32, align 4
  %12 = alloca i32, align 4
  %13 = alloca [1024 x i64], align 16
  %14 = alloca ptr, align 8
  %15 = alloca ptr, align 8
  %16 = alloca ptr, align 8
  %17 = alloca i32, align 4
  %18 = alloca i32, align 4
  %19 = alloca i32, align 4
  store ptr %0, ptr %7, align 8, !tbaa !51
  store i32 %1, ptr %8, align 4, !tbaa !3
  store ptr %2, ptr %9, align 8, !tbaa !21
  store ptr %3, ptr %10, align 8, !tbaa !21
  store i32 %4, ptr %11, align 4, !tbaa !3
  store i32 %5, ptr %12, align 4, !tbaa !3
  call void @llvm.lifetime.start.p0(i64 8192, ptr %13) #11
  call void @llvm.lifetime.start.p0(i64 8, ptr %14) #11
  %20 = load ptr, ptr %7, align 8, !tbaa !51
  store ptr %20, ptr %14, align 8, !tbaa !51
  call void @llvm.lifetime.start.p0(i64 8, ptr %15) #11
  %21 = getelementptr inbounds [1024 x i64], ptr %13, i64 0, i64 0
  store ptr %21, ptr %15, align 8, !tbaa !51
  call void @llvm.lifetime.start.p0(i64 8, ptr %16) #11
  call void @llvm.lifetime.start.p0(i64 4, ptr %17) #11
  call void @llvm.lifetime.start.p0(i64 4, ptr %18) #11
  call void @llvm.lifetime.start.p0(i64 4, ptr %19) #11
  store i32 0, ptr %19, align 4, !tbaa !3
  br label %22

22:                                               ; preds = %30, %6
  %23 = load ptr, ptr %9, align 8, !tbaa !21
  %24 = load i32, ptr %11, align 4, !tbaa !3
  %25 = sext i32 %24 to i64
  %26 = getelementptr inbounds i32, ptr %23, i64 %25
  %27 = load i32, ptr %26, align 4, !tbaa !3
  %28 = load i32, ptr %12, align 4, !tbaa !3
  %29 = icmp slt i32 %27, %28
  br i1 %29, label %30, label %104

30:                                               ; preds = %22
  %31 = load ptr, ptr %9, align 8, !tbaa !21
  %32 = load i32, ptr %11, align 4, !tbaa !3
  %33 = sext i32 %32 to i64
  %34 = getelementptr inbounds i32, ptr %31, i64 %33
  %35 = load i32, ptr %34, align 4, !tbaa !3
  store i32 %35, ptr %17, align 4, !tbaa !3
  %36 = load ptr, ptr %9, align 8, !tbaa !21
  %37 = load i32, ptr %11, align 4, !tbaa !3
  %38 = sext i32 %37 to i64
  %39 = getelementptr inbounds i32, ptr %36, i64 %38
  %40 = load i32, ptr %39, align 4, !tbaa !3
  %41 = add nsw i32 %40, 1
  store i32 %41, ptr %18, align 4, !tbaa !3
  %42 = load ptr, ptr %15, align 8, !tbaa !51
  %43 = load ptr, ptr %14, align 8, !tbaa !51
  %44 = load i32, ptr %17, align 4, !tbaa !3
  %45 = load i32, ptr %8, align 4, !tbaa !3
  call void @If_CluSwapAdjacent(ptr noundef %42, ptr noundef %43, i32 noundef %44, i32 noundef %45)
  %46 = load ptr, ptr %14, align 8, !tbaa !51
  store ptr %46, ptr %16, align 8, !tbaa !51
  %47 = load ptr, ptr %15, align 8, !tbaa !51
  store ptr %47, ptr %14, align 8, !tbaa !51
  %48 = load ptr, ptr %16, align 8, !tbaa !51
  store ptr %48, ptr %15, align 8, !tbaa !51
  %49 = load ptr, ptr %9, align 8, !tbaa !21
  %50 = load ptr, ptr %10, align 8, !tbaa !21
  %51 = load i32, ptr %17, align 4, !tbaa !3
  %52 = sext i32 %51 to i64
  %53 = getelementptr inbounds i32, ptr %50, i64 %52
  %54 = load i32, ptr %53, align 4, !tbaa !3
  %55 = sext i32 %54 to i64
  %56 = getelementptr inbounds i32, ptr %49, i64 %55
  %57 = load i32, ptr %56, align 4, !tbaa !3
  %58 = add nsw i32 %57, 1
  store i32 %58, ptr %56, align 4, !tbaa !3
  %59 = load ptr, ptr %9, align 8, !tbaa !21
  %60 = load ptr, ptr %10, align 8, !tbaa !21
  %61 = load i32, ptr %18, align 4, !tbaa !3
  %62 = sext i32 %61 to i64
  %63 = getelementptr inbounds i32, ptr %60, i64 %62
  %64 = load i32, ptr %63, align 4, !tbaa !3
  %65 = sext i32 %64 to i64
  %66 = getelementptr inbounds i32, ptr %59, i64 %65
  %67 = load i32, ptr %66, align 4, !tbaa !3
  %68 = add nsw i32 %67, -1
  store i32 %68, ptr %66, align 4, !tbaa !3
  %69 = load ptr, ptr %10, align 8, !tbaa !21
  %70 = load i32, ptr %18, align 4, !tbaa !3
  %71 = sext i32 %70 to i64
  %72 = getelementptr inbounds i32, ptr %69, i64 %71
  %73 = load i32, ptr %72, align 4, !tbaa !3
  %74 = load ptr, ptr %10, align 8, !tbaa !21
  %75 = load i32, ptr %17, align 4, !tbaa !3
  %76 = sext i32 %75 to i64
  %77 = getelementptr inbounds i32, ptr %74, i64 %76
  %78 = load i32, ptr %77, align 4, !tbaa !3
  %79 = xor i32 %78, %73
  store i32 %79, ptr %77, align 4, !tbaa !3
  %80 = load ptr, ptr %10, align 8, !tbaa !21
  %81 = load i32, ptr %17, align 4, !tbaa !3
  %82 = sext i32 %81 to i64
  %83 = getelementptr inbounds i32, ptr %80, i64 %82
  %84 = load i32, ptr %83, align 4, !tbaa !3
  %85 = load ptr, ptr %10, align 8, !tbaa !21
  %86 = load i32, ptr %18, align 4, !tbaa !3
  %87 = sext i32 %86 to i64
  %88 = getelementptr inbounds i32, ptr %85, i64 %87
  %89 = load i32, ptr %88, align 4, !tbaa !3
  %90 = xor i32 %89, %84
  store i32 %90, ptr %88, align 4, !tbaa !3
  %91 = load ptr, ptr %10, align 8, !tbaa !21
  %92 = load i32, ptr %18, align 4, !tbaa !3
  %93 = sext i32 %92 to i64
  %94 = getelementptr inbounds i32, ptr %91, i64 %93
  %95 = load i32, ptr %94, align 4, !tbaa !3
  %96 = load ptr, ptr %10, align 8, !tbaa !21
  %97 = load i32, ptr %17, align 4, !tbaa !3
  %98 = sext i32 %97 to i64
  %99 = getelementptr inbounds i32, ptr %96, i64 %98
  %100 = load i32, ptr %99, align 4, !tbaa !3
  %101 = xor i32 %100, %95
  store i32 %101, ptr %99, align 4, !tbaa !3
  %102 = load i32, ptr %19, align 4, !tbaa !3
  %103 = add nsw i32 %102, 1
  store i32 %103, ptr %19, align 4, !tbaa !3
  br label %22, !llvm.loop !128

104:                                              ; preds = %22
  br label %105

105:                                              ; preds = %113, %104
  %106 = load ptr, ptr %9, align 8, !tbaa !21
  %107 = load i32, ptr %11, align 4, !tbaa !3
  %108 = sext i32 %107 to i64
  %109 = getelementptr inbounds i32, ptr %106, i64 %108
  %110 = load i32, ptr %109, align 4, !tbaa !3
  %111 = load i32, ptr %12, align 4, !tbaa !3
  %112 = icmp sgt i32 %110, %111
  br i1 %112, label %113, label %187

113:                                              ; preds = %105
  %114 = load ptr, ptr %9, align 8, !tbaa !21
  %115 = load i32, ptr %11, align 4, !tbaa !3
  %116 = sext i32 %115 to i64
  %117 = getelementptr inbounds i32, ptr %114, i64 %116
  %118 = load i32, ptr %117, align 4, !tbaa !3
  %119 = sub nsw i32 %118, 1
  store i32 %119, ptr %17, align 4, !tbaa !3
  %120 = load ptr, ptr %9, align 8, !tbaa !21
  %121 = load i32, ptr %11, align 4, !tbaa !3
  %122 = sext i32 %121 to i64
  %123 = getelementptr inbounds i32, ptr %120, i64 %122
  %124 = load i32, ptr %123, align 4, !tbaa !3
  store i32 %124, ptr %18, align 4, !tbaa !3
  %125 = load ptr, ptr %15, align 8, !tbaa !51
  %126 = load ptr, ptr %14, align 8, !tbaa !51
  %127 = load i32, ptr %17, align 4, !tbaa !3
  %128 = load i32, ptr %8, align 4, !tbaa !3
  call void @If_CluSwapAdjacent(ptr noundef %125, ptr noundef %126, i32 noundef %127, i32 noundef %128)
  %129 = load ptr, ptr %14, align 8, !tbaa !51
  store ptr %129, ptr %16, align 8, !tbaa !51
  %130 = load ptr, ptr %15, align 8, !tbaa !51
  store ptr %130, ptr %14, align 8, !tbaa !51
  %131 = load ptr, ptr %16, align 8, !tbaa !51
  store ptr %131, ptr %15, align 8, !tbaa !51
  %132 = load ptr, ptr %9, align 8, !tbaa !21
  %133 = load ptr, ptr %10, align 8, !tbaa !21
  %134 = load i32, ptr %17, align 4, !tbaa !3
  %135 = sext i32 %134 to i64
  %136 = getelementptr inbounds i32, ptr %133, i64 %135
  %137 = load i32, ptr %136, align 4, !tbaa !3
  %138 = sext i32 %137 to i64
  %139 = getelementptr inbounds i32, ptr %132, i64 %138
  %140 = load i32, ptr %139, align 4, !tbaa !3
  %141 = add nsw i32 %140, 1
  store i32 %141, ptr %139, align 4, !tbaa !3
  %142 = load ptr, ptr %9, align 8, !tbaa !21
  %143 = load ptr, ptr %10, align 8, !tbaa !21
  %144 = load i32, ptr %18, align 4, !tbaa !3
  %145 = sext i32 %144 to i64
  %146 = getelementptr inbounds i32, ptr %143, i64 %145
  %147 = load i32, ptr %146, align 4, !tbaa !3
  %148 = sext i32 %147 to i64
  %149 = getelementptr inbounds i32, ptr %142, i64 %148
  %150 = load i32, ptr %149, align 4, !tbaa !3
  %151 = add nsw i32 %150, -1
  store i32 %151, ptr %149, align 4, !tbaa !3
  %152 = load ptr, ptr %10, align 8, !tbaa !21
  %153 = load i32, ptr %18, align 4, !tbaa !3
  %154 = sext i32 %153 to i64
  %155 = getelementptr inbounds i32, ptr %152, i64 %154
  %156 = load i32, ptr %155, align 4, !tbaa !3
  %157 = load ptr, ptr %10, align 8, !tbaa !21
  %158 = load i32, ptr %17, align 4, !tbaa !3
  %159 = sext i32 %158 to i64
  %160 = getelementptr inbounds i32, ptr %157, i64 %159
  %161 = load i32, ptr %160, align 4, !tbaa !3
  %162 = xor i32 %161, %156
  store i32 %162, ptr %160, align 4, !tbaa !3
  %163 = load ptr, ptr %10, align 8, !tbaa !21
  %164 = load i32, ptr %17, align 4, !tbaa !3
  %165 = sext i32 %164 to i64
  %166 = getelementptr inbounds i32, ptr %163, i64 %165
  %167 = load i32, ptr %166, align 4, !tbaa !3
  %168 = load ptr, ptr %10, align 8, !tbaa !21
  %169 = load i32, ptr %18, align 4, !tbaa !3
  %170 = sext i32 %169 to i64
  %171 = getelementptr inbounds i32, ptr %168, i64 %170
  %172 = load i32, ptr %171, align 4, !tbaa !3
  %173 = xor i32 %172, %167
  store i32 %173, ptr %171, align 4, !tbaa !3
  %174 = load ptr, ptr %10, align 8, !tbaa !21
  %175 = load i32, ptr %18, align 4, !tbaa !3
  %176 = sext i32 %175 to i64
  %177 = getelementptr inbounds i32, ptr %174, i64 %176
  %178 = load i32, ptr %177, align 4, !tbaa !3
  %179 = load ptr, ptr %10, align 8, !tbaa !21
  %180 = load i32, ptr %17, align 4, !tbaa !3
  %181 = sext i32 %180 to i64
  %182 = getelementptr inbounds i32, ptr %179, i64 %181
  %183 = load i32, ptr %182, align 4, !tbaa !3
  %184 = xor i32 %183, %178
  store i32 %184, ptr %182, align 4, !tbaa !3
  %185 = load i32, ptr %19, align 4, !tbaa !3
  %186 = add nsw i32 %185, 1
  store i32 %186, ptr %19, align 4, !tbaa !3
  br label %105, !llvm.loop !129

187:                                              ; preds = %105
  %188 = load i32, ptr %19, align 4, !tbaa !3
  %189 = and i32 %188, 1
  %190 = icmp ne i32 %189, 0
  br i1 %190, label %191, label %195

191:                                              ; preds = %187
  %192 = load ptr, ptr %7, align 8, !tbaa !51
  %193 = load ptr, ptr %14, align 8, !tbaa !51
  %194 = load i32, ptr %8, align 4, !tbaa !3
  call void @If_CluCopy(ptr noundef %192, ptr noundef %193, i32 noundef %194)
  br label %195

195:                                              ; preds = %191, %187
  call void @llvm.lifetime.end.p0(i64 4, ptr %19) #11
  call void @llvm.lifetime.end.p0(i64 4, ptr %18) #11
  call void @llvm.lifetime.end.p0(i64 4, ptr %17) #11
  call void @llvm.lifetime.end.p0(i64 8, ptr %16) #11
  call void @llvm.lifetime.end.p0(i64 8, ptr %15) #11
  call void @llvm.lifetime.end.p0(i64 8, ptr %14) #11
  call void @llvm.lifetime.end.p0(i64 8192, ptr %13) #11
  ret void
}