; Function Attrs: nofree norecurse nosync nounwind memory(readwrite, inaccessiblemem: none) uwtable
define void @If_CluMoveVar(ptr noundef captures(none) %0, i32 noundef %1, ptr noundef captures(none) %2, ptr noundef captures(none) %3, i32 noundef %4, i32 noundef %5) local_unnamed_addr #11 {
  %7 = alloca [1024 x i64], align 16
  call void @llvm.lifetime.start.p0(i64 8192, ptr nonnull %7) #22
  %8 = sext i32 %4 to i64
  %9 = getelementptr inbounds i32, ptr %2, i64 %8
  %10 = load i32, ptr %9, align 4, !tbaa !6
  %11 = icmp slt i32 %10, %5
  br i1 %11, label %.lr.ph, label %.preheader

.preheader:                                       ; preds = %.lr.ph, %6
  %12 = phi i32 [ %10, %6 ], [ %31, %.lr.ph ]
  %.072.lcssa = phi ptr [ %0, %6 ], [ %.07078, %.lr.ph ]
  %.070.lcssa = phi ptr [ %7, %6 ], [ %.07277, %.lr.ph ]
  %.0.lcssa = phi i32 [ 0, %6 ], [ %30, %.lr.ph ]
  %13 = icmp sgt i32 %12, %5
  br i1 %13, label %.lr.ph86, label %._crit_edge

.lr.ph:                                           ; preds = %6, %.lr.ph
  %14 = phi i32 [ %31, %.lr.ph ], [ %10, %6 ]
  %.079 = phi i32 [ %30, %.lr.ph ], [ 0, %6 ]
  %.07078 = phi ptr [ %.07277, %.lr.ph ], [ %7, %6 ]
  %.07277 = phi ptr [ %.07078, %.lr.ph ], [ %0, %6 ]
  call fastcc void @If_CluSwapAdjacent(ptr noundef %.07078, ptr noundef %.07277, i32 noundef %14, i32 noundef %1)
  %15 = sext i32 %14 to i64
  %16 = getelementptr inbounds i32, ptr %3, i64 %15
  %17 = load i32, ptr %16, align 4, !tbaa !6
  %18 = sext i32 %17 to i64
  %19 = getelementptr inbounds i32, ptr %2, i64 %18
  %20 = load i32, ptr %19, align 4, !tbaa !6
  %21 = add nsw i32 %20, 1
  store i32 %21, ptr %19, align 4, !tbaa !6
  %22 = getelementptr i8, ptr %16, i64 4
  %23 = load i32, ptr %22, align 4, !tbaa !6
  %24 = sext i32 %23 to i64
  %25 = getelementptr inbounds i32, ptr %2, i64 %24
  %26 = load i32, ptr %25, align 4, !tbaa !6
  %27 = add nsw i32 %26, -1
  store i32 %27, ptr %25, align 4, !tbaa !6
  %28 = load i32, ptr %22, align 4, !tbaa !6
  %29 = load i32, ptr %16, align 4, !tbaa !6
  store i32 %29, ptr %22, align 4, !tbaa !6
  store i32 %28, ptr %16, align 4, !tbaa !6
  %30 = add nuw nsw i32 %.079, 1
  %31 = load i32, ptr %9, align 4, !tbaa !6
  %32 = icmp slt i32 %31, %5
  br i1 %32, label %.lr.ph, label %.preheader, !llvm.loop !135

.lr.ph86:                                         ; preds = %.preheader, %.lr.ph86
  %33 = phi i32 [ %52, %.lr.ph86 ], [ %12, %.preheader ]
  %.185 = phi i32 [ %51, %.lr.ph86 ], [ %.0.lcssa, %.preheader ]
  %.17184 = phi ptr [ %.17383, %.lr.ph86 ], [ %.070.lcssa, %.preheader ]
  %.17383 = phi ptr [ %.17184, %.lr.ph86 ], [ %.072.lcssa, %.preheader ]
  %34 = add nsw i32 %33, -1
  call fastcc void @If_CluSwapAdjacent(ptr noundef %.17184, ptr noundef %.17383, i32 noundef %34, i32 noundef %1)
  %35 = sext i32 %34 to i64
  %36 = getelementptr inbounds i32, ptr %3, i64 %35
  %37 = load i32, ptr %36, align 4, !tbaa !6
  %38 = sext i32 %37 to i64
  %39 = getelementptr inbounds i32, ptr %2, i64 %38
  %40 = load i32, ptr %39, align 4, !tbaa !6
  %41 = add nsw i32 %40, 1
  store i32 %41, ptr %39, align 4, !tbaa !6
  %42 = sext i32 %33 to i64
  %43 = getelementptr inbounds i32, ptr %3, i64 %42
  %44 = load i32, ptr %43, align 4, !tbaa !6
  %45 = sext i32 %44 to i64
  %46 = getelementptr inbounds i32, ptr %2, i64 %45
  %47 = load i32, ptr %46, align 4, !tbaa !6
  %48 = add nsw i32 %47, -1
  store i32 %48, ptr %46, align 4, !tbaa !6
  %49 = load i32, ptr %43, align 4, !tbaa !6
  %50 = load i32, ptr %36, align 4, !tbaa !6
  store i32 %50, ptr %43, align 4, !tbaa !6
  store i32 %49, ptr %36, align 4, !tbaa !6
  %51 = add nuw nsw i32 %.185, 1
  %52 = load i32, ptr %9, align 4, !tbaa !6
  %53 = icmp sgt i32 %52, %5
  br i1 %53, label %.lr.ph86, label %._crit_edge, !llvm.loop !136

._crit_edge:                                      ; preds = %.lr.ph86, %.preheader
  %.173.lcssa = phi ptr [ %.072.lcssa, %.preheader ], [ %.17184, %.lr.ph86 ]
  %.1.lcssa = phi i32 [ %.0.lcssa, %.preheader ], [ %51, %.lr.ph86 ]
  %54 = and i32 %.1.lcssa, 1
  %.not = icmp eq i32 %54, 0
  br i1 %.not, label %If_CluCopy.exit, label %55

55:                                               ; preds = %._crit_edge
  %56 = icmp slt i32 %1, 7
  %57 = add nsw i32 %1, -6
  %58 = shl nuw i32 1, %57
  %59 = select i1 %56, i32 1, i32 %58
  %60 = icmp sgt i32 %59, 0
  br i1 %60, label %.lr.ph.preheader.i, label %If_CluCopy.exit

.lr.ph.preheader.i:                               ; preds = %55
  %wide.trip.count.i = zext nneg i32 %59 to i64
  br label %.lr.ph.i

.lr.ph.i:                                         ; preds = %.lr.ph.i, %.lr.ph.preheader.i
  %indvars.iv.i = phi i64 [ 0, %.lr.ph.preheader.i ], [ %indvars.iv.next.i, %.lr.ph.i ]
  %61 = getelementptr inbounds nuw i64, ptr %.173.lcssa, i64 %indvars.iv.i
  %62 = load i64, ptr %61, align 8, !tbaa !16
  %63 = getelementptr inbounds nuw i64, ptr %0, i64 %indvars.iv.i
  store i64 %62, ptr %63, align 8, !tbaa !16
  %indvars.iv.next.i = add nuw nsw i64 %indvars.iv.i, 1
  %exitcond.not.i = icmp eq i64 %indvars.iv.next.i, %wide.trip.count.i
  br i1 %exitcond.not.i, label %If_CluCopy.exit, label %.lr.ph.i, !llvm.loop !137

If_CluCopy.exit:                                  ; preds = %.lr.ph.i, %55, %._crit_edge
  call void @llvm.lifetime.end.p0(i64 8192, ptr nonnull %7) #22
  ret void
}